(lp0
S'poi'
p1
aS'bonus'
p2
aS'exercised_stock_options'
p3
aS'total_stock_value'
p4
aS'fraction_to_poi'
p5
aS'salary'
p6
aS'total_payments'
p7
aS'shared_receipt_with_poi'
p8
aS'deferred_income'
p9
aS'restricted_stock'
p10
aS'loan_advances'
p11
aS'long_term_incentive'
p12
aS'other'
p13
aS'to_messages'
p14
aS'expenses'
p15
aS'director_fees'
p16
a.